target datalayout = "e-m:e-p270:32:32-p271:32:32-p272:64:64-i64:64-i128:128-f80:128-n8:16:32:64-S128"
target triple = "x86_64-pc-linux-gnu"

%struct.ZSTD_customMem = type { ptr, ptr, ptr }
%struct.ZSTD_frameParameters = type { i32, i32, i32 }
%struct.ZSTD_compressionParameters = type { i32, i32, i32, i32, i32, i32, i32 }
%struct.ZSTD_CCtx_s = type { i32, i32, i32, %struct.ZSTD_CCtx_params_s, %struct.ZSTD_CCtx_params_s, %struct.ZSTD_CCtx_params_s, i32, i64, %struct.ZSTD_cwksp, i64, i64, i64, i64, %struct.XXH64_state_s, %struct.ZSTD_customMem, ptr, i64, %struct.SeqCollector, i32, i32, %struct.seqStore_t, %struct.ldmState_t, ptr, i64, %struct.rawSeqStore_t, %struct.ZSTD_blockState_t, ptr, i32, ptr, i64, i64, i64, i64, ptr, i64, i64, i64, i32, i32, %struct.ZSTD_inBuffer_s, i64, i64, %struct.ZSTD_localDict, ptr, %struct.ZSTD_prefixDict_s, i64, %struct.ZSTD_blockSplitCtx, %struct.ZSTD_externalMatchCtx }
%struct.ZSTD_CCtx_params_s = type { i32, %struct.ZSTD_compressionParameters, %struct.ZSTD_frameParameters, i32, i32, i64, i32, i32, i32, i32, i64, i32, i32, %struct.ldmParams_t, i32, i32, i32, i32, i32, i32, i32, i32, %struct.ZSTD_customMem, i32, i32, i32, i64, i32 }
%struct.ldmParams_t = type { i32, i32, i32, i32, i32, i32 }
%struct.ZSTD_cwksp = type { ptr, ptr, ptr, ptr, ptr, ptr, ptr, i8, i32, i32, i32 }
%struct.XXH64_state_s = type { i64, [4 x i64], [4 x i64], i32, i32, i64 }
%struct.SeqCollector = type { i32, ptr, i64, i64 }
%struct.seqStore_t = type { ptr, ptr, ptr, ptr, ptr, ptr, ptr, i64, i64, i32, i32 }
%struct.ldmState_t = type { %struct.ZSTD_window_t, ptr, i32, ptr, [64 x i64], [64 x %struct.ldmMatchCandidate_t] }
%struct.ZSTD_window_t = type { ptr, ptr, ptr, i32, i32, i32 }
%struct.ldmMatchCandidate_t = type { ptr, i32, i32, ptr }
%struct.rawSeqStore_t = type { ptr, i64, i64, i64, i64 }
%struct.ZSTD_blockState_t = type { ptr, ptr, %struct.ZSTD_matchState_t }
%struct.ZSTD_matchState_t = type { %struct.ZSTD_window_t, i32, i32, i32, i32, ptr, [8 x i32], i64, i32, ptr, ptr, ptr, i32, i32, %struct.optState_t, ptr, %struct.ZSTD_compressionParameters, ptr, i32, i32 }
%struct.optState_t = type { ptr, ptr, ptr, ptr, ptr, ptr, i32, i32, i32, i32, i32, i32, i32, i32, i32, ptr, i32 }
%struct.ZSTD_inBuffer_s = type { ptr, i64, i64 }
%struct.ZSTD_localDict = type { ptr, ptr, i64, i32, ptr }
%struct.ZSTD_prefixDict_s = type { ptr, i64, i32 }
%struct.ZSTD_blockSplitCtx = type { %struct.seqStore_t, %struct.seqStore_t, %struct.seqStore_t, %struct.seqStore_t, %struct.seqStore_t, [196 x i32], %struct.ZSTD_entropyCTablesMetadata_t }
%struct.ZSTD_entropyCTablesMetadata_t = type { %struct.ZSTD_hufCTablesMetadata_t, %struct.ZSTD_fseCTablesMetadata_t }
%struct.ZSTD_hufCTablesMetadata_t = type { i32, [128 x i8], i64 }
%struct.ZSTD_fseCTablesMetadata_t = type { i32, i32, i32, [133 x i8], i64, i64 }
%struct.ZSTD_externalMatchCtx = type { ptr, ptr, ptr, i64 }

; Function Attrs: nounwind uwtable
define dso_local void @ZSTD_registerSequenceProducer(ptr noundef %0, ptr noundef %1, ptr noundef %2) #0 {
  %4 = alloca ptr, align 8
  %5 = alloca ptr, align 8
  %6 = alloca ptr, align 8
  %7 = alloca %struct.ZSTD_externalMatchCtx, align 8
  store ptr %0, ptr %4, align 8
  store ptr %1, ptr %5, align 8
  store ptr %2, ptr %6, align 8
  %8 = load ptr, ptr %6, align 8
  %9 = icmp ne ptr %8, null
  br i1 %9, label %10, label %22

10:                                               ; preds = %3
  %11 = load ptr, ptr %5, align 8
  %12 = getelementptr inbounds %struct.ZSTD_externalMatchCtx, ptr %7, i32 0, i32 0
  store ptr %11, ptr %12, align 8
  %13 = load ptr, ptr %6, align 8
  %14 = getelementptr inbounds %struct.ZSTD_externalMatchCtx, ptr %7, i32 0, i32 1
  store ptr %13, ptr %14, align 8
  %15 = getelementptr inbounds %struct.ZSTD_externalMatchCtx, ptr %7, i32 0, i32 2
  store ptr null, ptr %15, align 8
  %16 = getelementptr inbounds %struct.ZSTD_externalMatchCtx, ptr %7, i32 0, i32 3
  store i64 0, ptr %16, align 8
  %17 = load ptr, ptr %4, align 8
  %18 = getelementptr inbounds %struct.ZSTD_CCtx_s, ptr %17, i32 0, i32 47
  call void @llvm.memcpy.p0.p0.i64(ptr align 8 %18, ptr align 8 %7, i64 32, i1 false)
  %19 = load ptr, ptr %4, align 8
  %20 = getelementptr inbounds %struct.ZSTD_CCtx_s, ptr %19, i32 0, i32 3
  %21 = getelementptr inbounds %struct.ZSTD_CCtx_params_s, ptr %20, i32 0, i32 25
  store i32 1, ptr %21, align 8
  br label %28

22:                                               ; preds = %3
  %23 = load ptr, ptr %4, align 8
  %24 = getelementptr inbounds %struct.ZSTD_CCtx_s, ptr %23, i32 0, i32 47
  call void @llvm.memset.p0.i64(ptr align 8 %24, i8 0, i64 32, i1 false)
  %25 = load ptr, ptr %4, align 8
  %26 = getelementptr inbounds %struct.ZSTD_CCtx_s, ptr %25, i32 0, i32 3
  %27 = getelementptr inbounds %struct.ZSTD_CCtx_params_s, ptr %26, i32 0, i32 25
  store i32 0, ptr %27, align 8
  br label %28

28:                                               ; preds = %22, %10
  ret void
}