; Function Attrs: mustprogress nofree norecurse nosync nounwind willreturn memory(argmem: write) uwtable
define dso_local void @ZSTD_registerSequenceProducer(ptr noundef writeonly captures(none) initializes((200, 204), (5208, 5240)) %0, ptr noundef %1, ptr noundef %2) local_unnamed_addr #6 {
  %.not = icmp eq ptr %2, null
  %4 = getelementptr inbounds nuw i8, ptr %0, i64 5208
  br i1 %.not, label %6, label %5

5:                                                ; preds = %3
  store ptr %1, ptr %4, align 8
  %.sroa.2.0..sroa_idx = getelementptr inbounds nuw i8, ptr %0, i64 5216
  store ptr %2, ptr %.sroa.2.0..sroa_idx, align 8
  %.sroa.3.0..sroa_idx = getelementptr inbounds nuw i8, ptr %0, i64 5224
  tail call void @llvm.memset.p0.i64(ptr noundef nonnull align 8 dereferenceable(16) %.sroa.3.0..sroa_idx, i8 0, i64 16, i1 false)
  br label %7

6:                                                ; preds = %3
  tail call void @llvm.memset.p0.i64(ptr noundef nonnull align 8 dereferenceable(32) %4, i8 0, i64 32, i1 false)
  br label %7

7:                                                ; preds = %6, %5
  %.sink = phi i32 [ 0, %6 ], [ 1, %5 ]
  %8 = getelementptr inbounds nuw i8, ptr %0, i64 200
  store i32 %.sink, ptr %8, align 8
  ret void
}